; Function Attrs: mustprogress uwtable
define hidden void @_ZN6Assimp4Ogre20OgreBinarySerializer9ReadBytesEPhm(ptr nocapture noundef nonnull readonly align 8 dereferenceable(20) %this, ptr nocapture noundef writeonly %dest, i64 noundef %numBytes) local_unnamed_addr #2 align 2 personality ptr @__gxx_personality_v0 {
entry:
  %m_reader.i = getelementptr inbounds i8, ptr %this, i64 8
  %0 = load ptr, ptr %m_reader.i, align 8
  %mCurrent.i.i.i = getelementptr inbounds i8, ptr %0, i64 24
  %1 = load ptr, ptr %mCurrent.i.i.i, align 8
  %add.ptr.i.i = getelementptr inbounds i8, ptr %1, i64 %numBytes
  store ptr %add.ptr.i.i, ptr %mCurrent.i.i.i, align 8
  %mLimit.i.i.i = getelementptr inbounds i8, ptr %0, i64 40
  %2 = load ptr, ptr %mLimit.i.i.i, align 8
  %cmp.i.i.i = icmp ult ptr %2, %add.ptr.i.i
  %mBuffer.i.i.i = getelementptr inbounds i8, ptr %0, i64 16
  %3 = load ptr, ptr %mBuffer.i.i.i, align 8
  %cmp4.i.i.i = icmp ugt ptr %3, %add.ptr.i.i
  %or.cond.i.i.i = select i1 %cmp.i.i.i, i1 true, i1 %cmp4.i.i.i
  br i1 %or.cond.i.i.i, label %if.then.i.i.i, label %_ZN6Assimp4Ogre20OgreBinarySerializer9ReadBytesEPvm.exit

if.then.i.i.i:                                    ; preds = %entry
  %exception.i.i.i = tail call ptr @__cxa_allocate_exception(i64 16) #19
  invoke void @_ZN17DeadlyImportErrorC2EPKc(ptr noundef nonnull align 8 dereferenceable(16) %exception.i.i.i, ptr noundef nonnull @.str.68)
          to label %invoke.cont.i.i.i unwind label %lpad.i.i.i

invoke.cont.i.i.i:                                ; preds = %if.then.i.i.i
  tail call void @__cxa_throw(ptr nonnull %exception.i.i.i, ptr nonnull @_ZTI17DeadlyImportError, ptr nonnull @_ZN17DeadlyImportErrorD2Ev) #20
  unreachable

lpad.i.i.i:                                       ; preds = %if.then.i.i.i
  %4 = landingpad { ptr, i32 }
          cleanup
  tail call void @__cxa_free_exception(ptr %exception.i.i.i) #19
  resume { ptr, i32 } %4

_ZN6Assimp4Ogre20OgreBinarySerializer9ReadBytesEPvm.exit: ; preds = %entry
  tail call void @llvm.memcpy.p0.p0.i64(ptr align 1 %dest, ptr align 1 %1, i64 %numBytes, i1 false)
  ret void
}